target datalayout = "e-m:e-p270:32:32-p271:32:32-p272:64:64-i64:64-i128:128-f80:128-n8:16:32:64-S128"
target triple = "x86_64-pc-linux-gnu"

%struct.rb_data_type_struct = type { ptr, %struct.anon, ptr, ptr, i64 }
%struct.anon = type { ptr, ptr, ptr, ptr, [1 x ptr] }

@ePKCS7Error = internal global i64 0, align 8
@rb_eRuntimeError = external global i64, align 8
@ossl_pkcs7_signer_info_type = internal constant %struct.rb_data_type_struct { ptr @.str.76, %struct.anon { ptr null, ptr @ossl_pkcs7_signer_info_free, ptr null, ptr null, [1 x ptr] zeroinitializer }, ptr null, ptr null, i64 33 }, align 8
@.str.73 = private unnamed_addr constant [28 x i8] c"PKCS7si wasn't initialized.\00", align 1

; Function Attrs: nounwind sspstrong uwtable
define internal i64 @ossl_pkcs7si_initialize(i64 noundef %0, i64 noundef %1, i64 noundef %2, i64 noundef %3) #0 {
  %5 = alloca i64, align 8
  %6 = alloca i64, align 8
  %7 = alloca i64, align 8
  %8 = alloca i64, align 8
  %9 = alloca ptr, align 8
  %10 = alloca ptr, align 8
  %11 = alloca ptr, align 8
  %12 = alloca ptr, align 8
  store i64 %0, ptr %5, align 8, !tbaa !11
  store i64 %1, ptr %6, align 8, !tbaa !11
  store i64 %2, ptr %7, align 8, !tbaa !11
  store i64 %3, ptr %8, align 8, !tbaa !11
  call void @llvm.lifetime.start.p0(i64 8, ptr %9) #16
  call void @llvm.lifetime.start.p0(i64 8, ptr %10) #16
  call void @llvm.lifetime.start.p0(i64 8, ptr %11) #16
  call void @llvm.lifetime.start.p0(i64 8, ptr %12) #16
  %13 = load i64, ptr %7, align 8, !tbaa !11
  %14 = call ptr @GetPrivPKeyPtr(i64 noundef %13)
  store ptr %14, ptr %10, align 8, !tbaa !32
  %15 = load i64, ptr %6, align 8, !tbaa !11
  %16 = call ptr @GetX509CertPtr(i64 noundef %15)
  store ptr %16, ptr %11, align 8, !tbaa !30
  %17 = load i64, ptr %8, align 8, !tbaa !11
  %18 = call ptr @ossl_evp_get_digestbyname(i64 noundef %17)
  store ptr %18, ptr %12, align 8, !tbaa !67
  br label %19

19:                                               ; preds = %4
  %20 = load i64, ptr %5, align 8, !tbaa !11
  %21 = call ptr @rb_check_typeddata(i64 noundef %20, ptr noundef @ossl_pkcs7_signer_info_type)
  store ptr %21, ptr %9, align 8, !tbaa !40
  %22 = load ptr, ptr %9, align 8, !tbaa !40
  %23 = icmp ne ptr %22, null
  br i1 %23, label %26, label %24

24:                                               ; preds = %19
  %25 = load i64, ptr @rb_eRuntimeError, align 8, !tbaa !11
  call void (i64, ptr, ...) @ossl_raise(i64 noundef %25, ptr noundef @.str.73) #17
  unreachable

26:                                               ; preds = %19
  br label %27

27:                                               ; preds = %26
  br label %28

28:                                               ; preds = %27
  %29 = load ptr, ptr %9, align 8, !tbaa !40
  %30 = load ptr, ptr %11, align 8, !tbaa !30
  %31 = load ptr, ptr %10, align 8, !tbaa !32
  %32 = load ptr, ptr %12, align 8, !tbaa !67
  %33 = call i32 @PKCS7_SIGNER_INFO_set(ptr noundef %29, ptr noundef %30, ptr noundef %31, ptr noundef %32)
  %34 = icmp ne i32 %33, 0
  br i1 %34, label %37, label %35

35:                                               ; preds = %28
  %36 = load i64, ptr @ePKCS7Error, align 8, !tbaa !11
  call void (i64, ptr, ...) @ossl_raise(i64 noundef %36, ptr noundef null) #17
  unreachable

37:                                               ; preds = %28
  %38 = load i64, ptr %5, align 8, !tbaa !11
  call void @llvm.lifetime.end.p0(i64 8, ptr %12) #16
  call void @llvm.lifetime.end.p0(i64 8, ptr %11) #16
  call void @llvm.lifetime.end.p0(i64 8, ptr %10) #16
  call void @llvm.lifetime.end.p0(i64 8, ptr %9) #16
  ret i64 %38
}