; Function Attrs: nounwind sspstrong uwtable
define internal noundef i64 @ossl_pkcs7si_initialize(i64 noundef returned %0, i64 noundef %1, i64 noundef %2, i64 noundef %3) #0 {
  %5 = tail call ptr @GetPrivPKeyPtr(i64 noundef %2) #5
  %6 = tail call ptr @GetX509CertPtr(i64 noundef %1) #5
  %7 = tail call ptr @ossl_evp_get_digestbyname(i64 noundef %3) #5
  %8 = tail call ptr @rb_check_typeddata(i64 noundef %0, ptr noundef nonnull @ossl_pkcs7_signer_info_type) #5
  %.not = icmp eq ptr %8, null
  br i1 %.not, label %9, label %11

9:                                                ; preds = %4
  %10 = load i64, ptr @rb_eRuntimeError, align 8, !tbaa !6
  tail call void (i64, ptr, ...) @ossl_raise(i64 noundef %10, ptr noundef nonnull @.str.73) #6
  unreachable

11:                                               ; preds = %4
  %12 = tail call i32 @PKCS7_SIGNER_INFO_set(ptr noundef nonnull %8, ptr noundef %6, ptr noundef %5, ptr noundef %7) #5
  %.not9 = icmp eq i32 %12, 0
  br i1 %.not9, label %13, label %15

13:                                               ; preds = %11
  %14 = load i64, ptr @ePKCS7Error, align 8, !tbaa !6
  tail call void (i64, ptr, ...) @ossl_raise(i64 noundef %14, ptr noundef null) #6
  unreachable

15:                                               ; preds = %11
  ret i64 %0
}